target datalayout = "e-m:e-p270:32:32-p271:32:32-p272:64:64-i64:64-i128:128-f80:128-n8:16:32:64-S128"
target triple = "x86_64-pc-linux-gnu"

%struct.pkcs7_issuer_and_serial_st = type { ptr, ptr }
%struct.evp_pkey_st = type { i32, i32, ptr, ptr, ptr, %union.legacy_pkey_st, %union.legacy_pkey_st, %struct.CRYPTO_REF_COUNT, ptr, ptr, i32, i8, %struct.crypto_ex_data_st, ptr, ptr, i64, ptr, i64, %struct.anon }
%union.legacy_pkey_st = type { ptr }
%struct.CRYPTO_REF_COUNT = type { i32 }
%struct.crypto_ex_data_st = type { ptr, ptr }
%struct.anon = type { i32, i32, i32 }
%struct.evp_pkey_asn1_method_st = type { i32, i32, i64, ptr, ptr, ptr, ptr, ptr, ptr, ptr, ptr, ptr, ptr, ptr, ptr, ptr, ptr, ptr, ptr, ptr, ptr, ptr, ptr, ptr, ptr, ptr, ptr, ptr, ptr, ptr, ptr, ptr, ptr, ptr, ptr, ptr, ptr, ptr, ptr, ptr, ptr }
%struct.pkcs7_recip_info_st = type { ptr, ptr, ptr, ptr, ptr, ptr }

@.str = private unnamed_addr constant [34 x i8] c"../openssl/crypto/pkcs7/pk7_lib.c\00", align 1
@.str.3 = private unnamed_addr constant [4 x i8] c"RSA\00", align 1
@.str.4 = private unnamed_addr constant [8 x i8] c"RSA-PSS\00", align 1
@__func__.PKCS7_RECIP_INFO_set = private unnamed_addr constant [21 x i8] c"PKCS7_RECIP_INFO_set\00", align 1

; Function Attrs: nounwind uwtable
define void @PKCS7_RECIP_INFO_get0_alg(ptr noundef %0, ptr noundef %1) #0 {
  %3 = alloca ptr, align 8
  %4 = alloca ptr, align 8
  store ptr %0, ptr %3, align 8, !tbaa !111
  store ptr %1, ptr %4, align 8, !tbaa !126
  %5 = load ptr, ptr %4, align 8, !tbaa !126
  %6 = icmp ne ptr %5, null
  br i1 %6, label %7, label %12

7:                                                ; preds = %2
  %8 = load ptr, ptr %3, align 8, !tbaa !111
  %9 = getelementptr inbounds nuw %struct.pkcs7_recip_info_st, ptr %8, i32 0, i32 2
  %10 = load ptr, ptr %9, align 8, !tbaa !129
  %11 = load ptr, ptr %4, align 8, !tbaa !126
  store ptr %10, ptr %11, align 8, !tbaa !67
  br label %12

12:                                               ; preds = %7, %2
  ret void
}

; Function Attrs: nounwind uwtable
define internal i32 @pkcs7_rsa_encrypt_decrypt_setup(ptr noundef %0, i32 noundef %1) #0 {
  %3 = alloca i32, align 4
  %4 = alloca ptr, align 8
  %5 = alloca i32, align 4
  %6 = alloca ptr, align 8
  %7 = alloca i32, align 4
  store ptr %0, ptr %4, align 8, !tbaa !111
  store i32 %1, ptr %5, align 4, !tbaa !8
  call void @llvm.lifetime.start.p0(i64 8, ptr %6) #4
  store ptr null, ptr %6, align 8, !tbaa !67
  %8 = load i32, ptr %5, align 4, !tbaa !8
  %9 = icmp ne i32 %8, 0
  br i1 %9, label %19, label %10

10:                                               ; preds = %2
  %11 = load ptr, ptr %4, align 8, !tbaa !111
  call void @PKCS7_RECIP_INFO_get0_alg(ptr noundef %11, ptr noundef %6)
  %12 = load ptr, ptr %6, align 8, !tbaa !67
  %13 = icmp ne ptr %12, null
  br i1 %13, label %14, label %18

14:                                               ; preds = %10
  %15 = load ptr, ptr %6, align 8, !tbaa !67
  %16 = call ptr @OBJ_nid2obj(i32 noundef 6)
  %17 = call i32 @X509_ALGOR_set0(ptr noundef %15, ptr noundef %16, i32 noundef 5, ptr noundef null)
  store i32 %17, ptr %3, align 4
  store i32 1, ptr %7, align 4
  br label %20

18:                                               ; preds = %10
  br label %19

19:                                               ; preds = %18, %2
  store i32 1, ptr %3, align 4
  store i32 1, ptr %7, align 4
  br label %20

20:                                               ; preds = %19, %14
  call void @llvm.lifetime.end.p0(i64 8, ptr %6) #4
  %21 = load i32, ptr %3, align 4
  ret i32 %21
}

; Function Attrs: nounwind uwtable
define i32 @PKCS7_RECIP_INFO_set(ptr noundef %0, ptr noundef %1) #0 {
  %3 = alloca i32, align 4
  %4 = alloca ptr, align 8
  %5 = alloca ptr, align 8
  %6 = alloca i32, align 4
  %7 = alloca ptr, align 8
  %8 = alloca i32, align 4
  store ptr %0, ptr %4, align 8, !tbaa !111
  store ptr %1, ptr %5, align 8, !tbaa !74
  call void @llvm.lifetime.start.p0(i64 4, ptr %6) #4
  call void @llvm.lifetime.start.p0(i64 8, ptr %7) #4
  store ptr null, ptr %7, align 8, !tbaa !83
  %9 = load ptr, ptr %4, align 8, !tbaa !111
  %10 = getelementptr inbounds nuw %struct.pkcs7_recip_info_st, ptr %9, i32 0, i32 0
  %11 = load ptr, ptr %10, align 8, !tbaa !131
  %12 = call i32 @ASN1_INTEGER_set(ptr noundef %11, i64 noundef 0)
  %13 = icmp ne i32 %12, 0
  br i1 %13, label %15, label %14

14:                                               ; preds = %2
  store i32 0, ptr %3, align 4
  store i32 1, ptr %8, align 4
  br label %98

15:                                               ; preds = %2
  %16 = load ptr, ptr %4, align 8, !tbaa !111
  %17 = getelementptr inbounds nuw %struct.pkcs7_recip_info_st, ptr %16, i32 0, i32 1
  %18 = load ptr, ptr %17, align 8, !tbaa !132
  %19 = getelementptr inbounds nuw %struct.pkcs7_issuer_and_serial_st, ptr %18, i32 0, i32 0
  %20 = load ptr, ptr %5, align 8, !tbaa !74
  %21 = call ptr @X509_get_issuer_name(ptr noundef %20)
  %22 = call i32 @X509_NAME_set(ptr noundef %19, ptr noundef %21)
  %23 = icmp ne i32 %22, 0
  br i1 %23, label %25, label %24

24:                                               ; preds = %15
  store i32 0, ptr %3, align 4
  store i32 1, ptr %8, align 4
  br label %98

25:                                               ; preds = %15
  %26 = load ptr, ptr %4, align 8, !tbaa !111
  %27 = getelementptr inbounds nuw %struct.pkcs7_recip_info_st, ptr %26, i32 0, i32 1
  %28 = load ptr, ptr %27, align 8, !tbaa !132
  %29 = getelementptr inbounds nuw %struct.pkcs7_issuer_and_serial_st, ptr %28, i32 0, i32 1
  %30 = load ptr, ptr %29, align 8, !tbaa !88
  call void @ASN1_INTEGER_free(ptr noundef %30)
  %31 = load ptr, ptr %5, align 8, !tbaa !74
  %32 = call ptr @X509_get0_serialNumber(ptr noundef %31)
  %33 = call ptr @ASN1_INTEGER_dup(ptr noundef %32)
  %34 = load ptr, ptr %4, align 8, !tbaa !111
  %35 = getelementptr inbounds nuw %struct.pkcs7_recip_info_st, ptr %34, i32 0, i32 1
  %36 = load ptr, ptr %35, align 8, !tbaa !132
  %37 = getelementptr inbounds nuw %struct.pkcs7_issuer_and_serial_st, ptr %36, i32 0, i32 1
  store ptr %33, ptr %37, align 8, !tbaa !88
  %38 = icmp ne ptr %33, null
  br i1 %38, label %40, label %39

39:                                               ; preds = %25
  store i32 0, ptr %3, align 4
  store i32 1, ptr %8, align 4
  br label %98

40:                                               ; preds = %25
  %41 = load ptr, ptr %5, align 8, !tbaa !74
  %42 = call ptr @X509_get0_pubkey(ptr noundef %41)
  store ptr %42, ptr %7, align 8, !tbaa !83
  %43 = load ptr, ptr %7, align 8, !tbaa !83
  %44 = icmp eq ptr %43, null
  br i1 %44, label %45, label %46

45:                                               ; preds = %40
  store i32 0, ptr %3, align 4
  store i32 1, ptr %8, align 4
  br label %98

46:                                               ; preds = %40
  %47 = load ptr, ptr %7, align 8, !tbaa !83
  %48 = call i32 @EVP_PKEY_is_a(ptr noundef %47, ptr noundef @.str.4)
  %49 = icmp ne i32 %48, 0
  br i1 %49, label %50, label %51

50:                                               ; preds = %46
  store i32 -2, ptr %3, align 4
  store i32 1, ptr %8, align 4
  br label %98

51:                                               ; preds = %46
  %52 = load ptr, ptr %7, align 8, !tbaa !83
  %53 = call i32 @EVP_PKEY_is_a(ptr noundef %52, ptr noundef @.str.3)
  %54 = icmp ne i32 %53, 0
  br i1 %54, label %55, label %61

55:                                               ; preds = %51
  %56 = load ptr, ptr %4, align 8, !tbaa !111
  %57 = call i32 @pkcs7_rsa_encrypt_decrypt_setup(ptr noundef %56, i32 noundef 0)
  %58 = icmp sle i32 %57, 0
  br i1 %58, label %59, label %60

59:                                               ; preds = %55
  br label %97

60:                                               ; preds = %55
  br label %91

61:                                               ; preds = %51
  %62 = load ptr, ptr %7, align 8, !tbaa !83
  %63 = getelementptr inbounds nuw %struct.evp_pkey_st, ptr %62, i32 0, i32 2
  %64 = load ptr, ptr %63, align 8, !tbaa !92
  %65 = icmp eq ptr %64, null
  br i1 %65, label %73, label %66

66:                                               ; preds = %61
  %67 = load ptr, ptr %7, align 8, !tbaa !83
  %68 = getelementptr inbounds nuw %struct.evp_pkey_st, ptr %67, i32 0, i32 2
  %69 = load ptr, ptr %68, align 8, !tbaa !92
  %70 = getelementptr inbounds nuw %struct.evp_pkey_asn1_method_st, ptr %69, i32 0, i32 23
  %71 = load ptr, ptr %70, align 8, !tbaa !102
  %72 = icmp eq ptr %71, null
  br i1 %72, label %73, label %74

73:                                               ; preds = %66, %61
  call void @ERR_new()
  call void @ERR_set_debug(ptr noundef @.str, i32 noundef 651, ptr noundef @__func__.PKCS7_RECIP_INFO_set)
  call void (i32, i32, ptr, ...) @ERR_set_error(i32 noundef 33, i32 noundef 150, ptr noundef null)
  br label %97

74:                                               ; preds = %66
  %75 = load ptr, ptr %7, align 8, !tbaa !83
  %76 = getelementptr inbounds nuw %struct.evp_pkey_st, ptr %75, i32 0, i32 2
  %77 = load ptr, ptr %76, align 8, !tbaa !92
  %78 = getelementptr inbounds nuw %struct.evp_pkey_asn1_method_st, ptr %77, i32 0, i32 23
  %79 = load ptr, ptr %78, align 8, !tbaa !102
  %80 = load ptr, ptr %7, align 8, !tbaa !83
  %81 = load ptr, ptr %4, align 8, !tbaa !111
  %82 = call i32 %79(ptr noundef %80, i32 noundef 2, i64 noundef 0, ptr noundef %81)
  store i32 %82, ptr %6, align 4, !tbaa !8
  %83 = load i32, ptr %6, align 4, !tbaa !8
  %84 = icmp eq i32 %83, -2
  br i1 %84, label %85, label %86

85:                                               ; preds = %74
  call void @ERR_new()
  call void @ERR_set_debug(ptr noundef @.str, i32 noundef 658, ptr noundef @__func__.PKCS7_RECIP_INFO_set)
  call void (i32, i32, ptr, ...) @ERR_set_error(i32 noundef 33, i32 noundef 150, ptr noundef null)
  br label %97

86:                                               ; preds = %74
  %87 = load i32, ptr %6, align 4, !tbaa !8
  %88 = icmp sle i32 %87, 0
  br i1 %88, label %89, label %90

89:                                               ; preds = %86
  call void @ERR_new()
  call void @ERR_set_debug(ptr noundef @.str, i32 noundef 662, ptr noundef @__func__.PKCS7_RECIP_INFO_set)
  call void (i32, i32, ptr, ...) @ERR_set_error(i32 noundef 33, i32 noundef 149, ptr noundef null)
  br label %97

90:                                               ; preds = %86
  br label %91

91:                                               ; preds = %90, %60
  %92 = load ptr, ptr %5, align 8, !tbaa !74
  %93 = call i32 @X509_up_ref(ptr noundef %92)
  %94 = load ptr, ptr %5, align 8, !tbaa !74
  %95 = load ptr, ptr %4, align 8, !tbaa !111
  %96 = getelementptr inbounds nuw %struct.pkcs7_recip_info_st, ptr %95, i32 0, i32 4
  store ptr %94, ptr %96, align 8, !tbaa !113
  store i32 1, ptr %3, align 4
  store i32 1, ptr %8, align 4
  br label %98

97:                                               ; preds = %89, %85, %73, %59
  store i32 0, ptr %3, align 4
  store i32 1, ptr %8, align 4
  br label %98

98:                                               ; preds = %97, %91, %50, %45, %39, %24, %14
  call void @llvm.lifetime.end.p0(i64 8, ptr %7) #4
  call void @llvm.lifetime.end.p0(i64 4, ptr %6) #4
  %99 = load i32, ptr %3, align 4
  ret i32 %99
}