; Function Attrs: nounwind uwtable
define range(i32 -2, 2) i32 @PKCS7_RECIP_INFO_set(ptr noundef %0, ptr noundef %1) local_unnamed_addr #0 {
  %3 = load ptr, ptr %0, align 8, !tbaa !98
  %4 = tail call i32 @ASN1_INTEGER_set(ptr noundef %3, i64 noundef 0) #7
  %.not = icmp eq i32 %4, 0
  br i1 %.not, label %48, label %5

5:                                                ; preds = %2
  %6 = getelementptr inbounds nuw i8, ptr %0, i64 8
  %7 = load ptr, ptr %6, align 8, !tbaa !99
  %8 = tail call ptr @X509_get_issuer_name(ptr noundef %1) #7
  %9 = tail call i32 @X509_NAME_set(ptr noundef %7, ptr noundef %8) #7
  %.not25 = icmp eq i32 %9, 0
  br i1 %.not25, label %48, label %10

10:                                               ; preds = %5
  %11 = load ptr, ptr %6, align 8, !tbaa !99
  %12 = getelementptr inbounds nuw i8, ptr %11, i64 8
  %13 = load ptr, ptr %12, align 8, !tbaa !63
  tail call void @ASN1_INTEGER_free(ptr noundef %13) #7
  %14 = tail call ptr @X509_get0_serialNumber(ptr noundef %1) #7
  %15 = tail call ptr @ASN1_INTEGER_dup(ptr noundef %14) #7
  %16 = load ptr, ptr %6, align 8, !tbaa !99
  %17 = getelementptr inbounds nuw i8, ptr %16, i64 8
  store ptr %15, ptr %17, align 8, !tbaa !63
  %.not26 = icmp eq ptr %15, null
  br i1 %.not26, label %48, label %18

18:                                               ; preds = %10
  %19 = tail call ptr @X509_get0_pubkey(ptr noundef %1) #7
  %20 = icmp eq ptr %19, null
  br i1 %20, label %48, label %21

21:                                               ; preds = %18
  %22 = tail call i32 @EVP_PKEY_is_a(ptr noundef nonnull %19, ptr noundef nonnull @.str.4) #7
  %.not27 = icmp eq i32 %22, 0
  br i1 %.not27, label %23, label %48

23:                                               ; preds = %21
  %24 = tail call i32 @EVP_PKEY_is_a(ptr noundef nonnull %19, ptr noundef nonnull @.str.3) #7
  %.not28 = icmp eq i32 %24, 0
  br i1 %.not28, label %30, label %25

25:                                               ; preds = %23
  %26 = getelementptr i8, ptr %0, i64 16
  %.val = load ptr, ptr %26, align 8, !tbaa !96
  %.not.i = icmp eq ptr %.val, null
  br i1 %.not.i, label %pkcs7_rsa_encrypt_decrypt_setup.exit.thread, label %pkcs7_rsa_encrypt_decrypt_setup.exit

pkcs7_rsa_encrypt_decrypt_setup.exit:             ; preds = %25
  %27 = tail call ptr @OBJ_nid2obj(i32 noundef 6) #7
  %28 = tail call i32 @X509_ALGOR_set0(ptr noundef nonnull %.val, ptr noundef %27, i32 noundef 5, ptr noundef null) #7
  %29 = icmp slt i32 %28, 1
  br i1 %29, label %48, label %pkcs7_rsa_encrypt_decrypt_setup.exit.thread

30:                                               ; preds = %23
  %31 = getelementptr inbounds nuw i8, ptr %19, i64 8
  %32 = load ptr, ptr %31, align 8, !tbaa !69
  %33 = icmp eq ptr %32, null
  br i1 %33, label %38, label %34

34:                                               ; preds = %30
  %35 = getelementptr inbounds nuw i8, ptr %32, i64 176
  %36 = load ptr, ptr %35, align 8, !tbaa !79
  %37 = icmp eq ptr %36, null
  br i1 %37, label %38, label %39

38:                                               ; preds = %34, %30
  tail call void @ERR_new() #7
  tail call void @ERR_set_debug(ptr noundef nonnull @.str, i32 noundef 651, ptr noundef nonnull @__func__.PKCS7_RECIP_INFO_set) #7
  tail call void (i32, i32, ptr, ...) @ERR_set_error(i32 noundef 33, i32 noundef 150, ptr noundef null) #7
  br label %48

39:                                               ; preds = %34
  %40 = tail call i32 %36(ptr noundef nonnull %19, i32 noundef 2, i64 noundef 0, ptr noundef nonnull %0) #7
  %41 = icmp eq i32 %40, -2
  br i1 %41, label %42, label %43

42:                                               ; preds = %39
  tail call void @ERR_new() #7
  tail call void @ERR_set_debug(ptr noundef nonnull @.str, i32 noundef 658, ptr noundef nonnull @__func__.PKCS7_RECIP_INFO_set) #7
  tail call void (i32, i32, ptr, ...) @ERR_set_error(i32 noundef 33, i32 noundef 150, ptr noundef null) #7
  br label %48

43:                                               ; preds = %39
  %44 = icmp slt i32 %40, 1
  br i1 %44, label %45, label %pkcs7_rsa_encrypt_decrypt_setup.exit.thread

45:                                               ; preds = %43
  tail call void @ERR_new() #7
  tail call void @ERR_set_debug(ptr noundef nonnull @.str, i32 noundef 662, ptr noundef nonnull @__func__.PKCS7_RECIP_INFO_set) #7
  tail call void (i32, i32, ptr, ...) @ERR_set_error(i32 noundef 33, i32 noundef 149, ptr noundef null) #7
  br label %48

pkcs7_rsa_encrypt_decrypt_setup.exit.thread:      ; preds = %25, %43, %pkcs7_rsa_encrypt_decrypt_setup.exit
  %46 = tail call i32 @X509_up_ref(ptr noundef %1) #7
  %47 = getelementptr inbounds nuw i8, ptr %0, i64 32
  store ptr %1, ptr %47, align 8, !tbaa !86
  br label %48

48:                                               ; preds = %38, %42, %45, %pkcs7_rsa_encrypt_decrypt_setup.exit, %21, %18, %10, %5, %2, %pkcs7_rsa_encrypt_decrypt_setup.exit.thread
  %.0 = phi i32 [ 1, %pkcs7_rsa_encrypt_decrypt_setup.exit.thread ], [ 0, %2 ], [ 0, %5 ], [ 0, %10 ], [ 0, %18 ], [ -2, %21 ], [ 0, %pkcs7_rsa_encrypt_decrypt_setup.exit ], [ 0, %45 ], [ 0, %42 ], [ 0, %38 ]
  ret i32 %.0
}